target datalayout = "e-m:e-p270:32:32-p271:32:32-p272:64:64-i64:64-i128:128-f80:128-n8:16:32:64-S128"
target triple = "x86_64-pc-linux-gnu"

@.str.1 = private unnamed_addr constant [32 x i8] c"SDL.gpu.device.create.debugmode\00", align 1
@.str.374 = private unnamed_addr constant [38 x i8] c"SDL.gpu.device.create.shaders.private\00", align 1
@.str.375 = private unnamed_addr constant [36 x i8] c"SDL.gpu.device.create.shaders.spirv\00", align 1
@.str.376 = private unnamed_addr constant [35 x i8] c"SDL.gpu.device.create.shaders.dxbc\00", align 1
@.str.377 = private unnamed_addr constant [35 x i8] c"SDL.gpu.device.create.shaders.dxil\00", align 1
@.str.378 = private unnamed_addr constant [34 x i8] c"SDL.gpu.device.create.shaders.msl\00", align 1
@.str.379 = private unnamed_addr constant [39 x i8] c"SDL.gpu.device.create.shaders.metallib\00", align 1
@.str.380 = private unnamed_addr constant [27 x i8] c"SDL.gpu.device.create.name\00", align 1

; Function Attrs: nounwind uwtable
define internal void @SDL_GPU_FillProperties(i32 noundef %0, i32 noundef %1, i1 noundef zeroext %2, ptr noundef %3) #0 {
  %5 = alloca i32, align 4
  %6 = alloca i32, align 4
  %7 = alloca i8, align 1
  %8 = alloca ptr, align 8
  store i32 %0, ptr %5, align 4
  store i32 %1, ptr %6, align 4
  %9 = zext i1 %2 to i8
  store i8 %9, ptr %7, align 1
  store ptr %3, ptr %8, align 8
  %10 = load i32, ptr %6, align 4
  %11 = and i32 %10, 1
  %12 = icmp ne i32 %11, 0
  br i1 %12, label %13, label %16

13:                                               ; preds = %4
  %14 = load i32, ptr %5, align 4
  %15 = call zeroext i1 @SDL_SetBooleanProperty_REAL(i32 noundef %14, ptr noundef @.str.374, i1 noundef zeroext true)
  br label %16

16:                                               ; preds = %13, %4
  %17 = load i32, ptr %6, align 4
  %18 = and i32 %17, 2
  %19 = icmp ne i32 %18, 0
  br i1 %19, label %20, label %23

20:                                               ; preds = %16
  %21 = load i32, ptr %5, align 4
  %22 = call zeroext i1 @SDL_SetBooleanProperty_REAL(i32 noundef %21, ptr noundef @.str.375, i1 noundef zeroext true)
  br label %23

23:                                               ; preds = %20, %16
  %24 = load i32, ptr %6, align 4
  %25 = and i32 %24, 4
  %26 = icmp ne i32 %25, 0
  br i1 %26, label %27, label %30

27:                                               ; preds = %23
  %28 = load i32, ptr %5, align 4
  %29 = call zeroext i1 @SDL_SetBooleanProperty_REAL(i32 noundef %28, ptr noundef @.str.376, i1 noundef zeroext true)
  br label %30

30:                                               ; preds = %27, %23
  %31 = load i32, ptr %6, align 4
  %32 = and i32 %31, 8
  %33 = icmp ne i32 %32, 0
  br i1 %33, label %34, label %37

34:                                               ; preds = %30
  %35 = load i32, ptr %5, align 4
  %36 = call zeroext i1 @SDL_SetBooleanProperty_REAL(i32 noundef %35, ptr noundef @.str.377, i1 noundef zeroext true)
  br label %37

37:                                               ; preds = %34, %30
  %38 = load i32, ptr %6, align 4
  %39 = and i32 %38, 16
  %40 = icmp ne i32 %39, 0
  br i1 %40, label %41, label %44

41:                                               ; preds = %37
  %42 = load i32, ptr %5, align 4
  %43 = call zeroext i1 @SDL_SetBooleanProperty_REAL(i32 noundef %42, ptr noundef @.str.378, i1 noundef zeroext true)
  br label %44

44:                                               ; preds = %41, %37
  %45 = load i32, ptr %6, align 4
  %46 = and i32 %45, 32
  %47 = icmp ne i32 %46, 0
  br i1 %47, label %48, label %51

48:                                               ; preds = %44
  %49 = load i32, ptr %5, align 4
  %50 = call zeroext i1 @SDL_SetBooleanProperty_REAL(i32 noundef %49, ptr noundef @.str.379, i1 noundef zeroext true)
  br label %51

51:                                               ; preds = %48, %44
  %52 = load i32, ptr %5, align 4
  %53 = load i8, ptr %7, align 1, !range !5, !noundef !6
  %54 = trunc i8 %53 to i1
  %55 = call zeroext i1 @SDL_SetBooleanProperty_REAL(i32 noundef %52, ptr noundef @.str.1, i1 noundef zeroext %54)
  %56 = load i32, ptr %5, align 4
  %57 = load ptr, ptr %8, align 8
  %58 = call zeroext i1 @SDL_SetStringProperty_REAL(i32 noundef %56, ptr noundef @.str.380, ptr noundef %57)
  ret void
}