; Function Attrs: nounwind uwtable
define internal fastcc void @SDL_GPU_FillProperties(i32 noundef %0, i32 noundef %1, i1 noundef zeroext %2, ptr noundef %3) unnamed_addr #0 {
  %5 = and i32 %1, 1
  %.not = icmp eq i32 %5, 0
  br i1 %.not, label %8, label %6

6:                                                ; preds = %4
  %7 = tail call zeroext i1 @SDL_SetBooleanProperty_REAL(i32 noundef %0, ptr noundef nonnull @.str.374, i1 noundef zeroext true) #7
  br label %8

8:                                                ; preds = %6, %4
  %9 = and i32 %1, 2
  %.not15 = icmp eq i32 %9, 0
  br i1 %.not15, label %12, label %10

10:                                               ; preds = %8
  %11 = tail call zeroext i1 @SDL_SetBooleanProperty_REAL(i32 noundef %0, ptr noundef nonnull @.str.375, i1 noundef zeroext true) #7
  br label %12

12:                                               ; preds = %10, %8
  %13 = and i32 %1, 4
  %.not16 = icmp eq i32 %13, 0
  br i1 %.not16, label %16, label %14

14:                                               ; preds = %12
  %15 = tail call zeroext i1 @SDL_SetBooleanProperty_REAL(i32 noundef %0, ptr noundef nonnull @.str.376, i1 noundef zeroext true) #7
  br label %16

16:                                               ; preds = %14, %12
  %17 = and i32 %1, 8
  %.not17 = icmp eq i32 %17, 0
  br i1 %.not17, label %20, label %18

18:                                               ; preds = %16
  %19 = tail call zeroext i1 @SDL_SetBooleanProperty_REAL(i32 noundef %0, ptr noundef nonnull @.str.377, i1 noundef zeroext true) #7
  br label %20

20:                                               ; preds = %18, %16
  %21 = and i32 %1, 16
  %.not18 = icmp eq i32 %21, 0
  br i1 %.not18, label %24, label %22

22:                                               ; preds = %20
  %23 = tail call zeroext i1 @SDL_SetBooleanProperty_REAL(i32 noundef %0, ptr noundef nonnull @.str.378, i1 noundef zeroext true) #7
  br label %24

24:                                               ; preds = %22, %20
  %25 = and i32 %1, 32
  %.not19 = icmp eq i32 %25, 0
  br i1 %.not19, label %28, label %26

26:                                               ; preds = %24
  %27 = tail call zeroext i1 @SDL_SetBooleanProperty_REAL(i32 noundef %0, ptr noundef nonnull @.str.379, i1 noundef zeroext true) #7
  br label %28

28:                                               ; preds = %26, %24
  %29 = tail call zeroext i1 @SDL_SetBooleanProperty_REAL(i32 noundef %0, ptr noundef nonnull @.str.1, i1 noundef zeroext %2) #7
  %30 = tail call zeroext i1 @SDL_SetStringProperty_REAL(i32 noundef %0, ptr noundef nonnull @.str.380, ptr noundef %3) #7
  ret void
}